; Function Attrs: nounwind uwtable
define range(i32 -2, 1) i32 @KINSetOrthAA(ptr noundef %0, i32 noundef %1) local_unnamed_addr #0 {
  %3 = icmp eq ptr %0, null
  br i1 %3, label %4, label %5

4:                                                ; preds = %2
  tail call void (ptr, i32, i32, ptr, ptr, ptr, ...) @KINProcessError(ptr noundef null, i32 noundef -1, i32 noundef 183, ptr noundef nonnull @__func__.KINSetOrthAA, ptr noundef nonnull @.str, ptr noundef nonnull @.str.1) #9
  br label %9

5:                                                ; preds = %2
  %or.cond = icmp ugt i32 %1, 3
  br i1 %or.cond, label %6, label %7

6:                                                ; preds = %5
  tail call void (ptr, i32, i32, ptr, ptr, ptr, ...) @KINProcessError(ptr noundef nonnull %0, i32 noundef -2, i32 noundef 191, ptr noundef nonnull @__func__.KINSetOrthAA, ptr noundef nonnull @.str, ptr noundef nonnull @.str.5) #9
  br label %9

7:                                                ; preds = %5
  %8 = getelementptr inbounds nuw i8, ptr %0, i64 464
  store i32 %1, ptr %8, align 8, !tbaa !22
  br label %9

9:                                                ; preds = %7, %6, %4
  %.0 = phi i32 [ -1, %4 ], [ -2, %6 ], [ 0, %7 ]
  ret i32 %.0
}